Certificate:
    Data:
        Version: 3 (0x2)
        Serial Number: 7 (0x7)
    Signature Algorithm: sha256WithRSAEncryption
        Issuer: C=UK, ST=Cornwall, L=Bodmin, O=Microtest Ltd, OU=SPIDER:CA, CN=SPIDER
        Validity
            Not Before: May 23 13:58:57 2018 GMT
            Not After : May 22 13:58:57 2019 GMT
        Subject: C=UK, ST=Cornwall, O=Microtest Ltd, OU=SPIDER:CLIENT, CN=Apollo:SQLSuite
        Subject Public Key Info:
            Public Key Algorithm: rsaEncryption
                Public-Key: (2048 bit)
                Modulus:
                    00:ba:e8:f3:73:66:67:a9:27:5f:2c:f2:7f:3c:35:
                    75:ee:b9:1e:65:e2:dc:a5:52:c5:11:1e:76:8c:ab:
                    3e:08:ea:37:2e:31:45:87:8a:e1:06:c1:60:5a:c8:
                    24:d4:f6:fe:63:89:e7:38:e6:11:27:7b:48:5e:47:
                    82:60:0d:90:b5:ba:1e:f2:5c:01:25:4d:8f:c3:7a:
                    c7:4a:29:dc:fd:93:fc:ff:1c:f3:94:70:b7:fe:99:
                    bc:57:73:cb:bb:b4:a0:e3:3c:29:ac:33:d3:e3:f0:
                    98:9e:64:15:cb:15:8a:77:90:b6:a9:07:5e:9d:df:
                    bf:82:bc:0c:b8:80:85:9c:14:6f:d1:0f:a1:cc:e5:
                    6b:eb:00:de:61:52:e5:36:40:cc:10:64:20:2e:25:
                    41:34:38:78:71:41:2f:70:04:a8:8b:6e:50:92:59:
                    58:67:0e:07:a9:06:a5:22:1b:0d:1a:04:77:53:58:
                    35:85:f0:0d:61:5f:e8:1b:60:e7:ab:9f:90:f5:6a:
                    15:38:3a:43:26:75:42:6b:b6:e0:07:50:d2:38:f5:
                    fa:3f:84:fa:66:dc:ae:0c:f4:de:d0:10:42:f5:f0:
                    5e:03:7f:5c:17:27:4b:7b:fa:cf:96:31:30:d1:0a:
                    bd:93:cd:f2:21:51:84:e5:1e:81:0a:08:6d:0a:eb:
                    4a:8f
                Exponent: 65537 (0x10001)
        X509v3 extensions:
            X509v3 Basic Constraints: 
                CA:FALSE
            Netscape Comment: 
                OpenSSL Generated Certificate
            X509v3 Subject Key Identifier: 
                61:5A:8C:79:E4:D5:B1:F3:FD:12:C9:78:FB:78:45:1E:22:DB:16:9C
            X509v3 Authority Key Identifier: 
                keyid:8A:53:71:90:F5:75:AF:40:5B:7D:EF:22:36:38:05:CE:31:B8:17:E3

    Signature Algorithm: sha256WithRSAEncryption
         1f:75:32:02:ea:f8:9f:30:66:d3:71:e5:8a:9f:56:54:19:15:
         bd:f4:0e:87:ff:b0:80:50:3e:c9:d4:8b:6e:0b:ec:13:10:cc:
         1a:7b:4b:d2:04:f9:a4:3d:b6:63:8f:ee:7a:85:35:b9:d9:09:
         68:4c:10:e7:1f:94:5a:16:f0:a7:29:bb:37:1f:14:d0:b7:82:
         93:fe:6f:c5:eb:ba:fd:2f:2a:65:f7:a5:83:74:8f:cd:15:d2:
         b5:74:7f:76:74:9a:87:9d:0e:c3:a3:15:ce:8b:29:04:22:24:
         f6:37:c2:6a:0a:86:74:41:c0:d1:40:af:89:d4:14:ef:dc:c4:
         79:c9:e7:03:02:6e:9e:09:54:ee:18:d9:f1:69:86:96:79:a6:
         72:63:73:e6:f0:42:98:c6:a1:d4:41:01:30:f8:f6:c5:2c:ac:
         ec:fe:ed:08:ee:5d:f2:44:b2:91:46:c4:83:b6:50:79:8f:d5:
         88:55:09:e9:31:38:97:64:cd:fc:86:7a:30:23:eb:96:a1:35:
         84:8c:d2:21:d1:cb:26:43:d1:0a:f3:bb:c9:40:6b:87:5d:1d:
         4d:16:b0:40:d5:5d:4e:fc:a9:51:21:02:d4:e8:20:72:01:64:
         cb:72:2c:79:1d:26:76:e6:8d:f9:50:12:d7:39:3f:27:9b:cf:
         34:27:a7:5e
-----BEGIN CERTIFICATE-----
MIIDzjCCAragAwIBAgIBBzANBgkqhkiG9w0BAQsFADBuMQswCQYDVQQGEwJVSzER
MA8GA1UECAwIQ29ybndhbGwxDzANBgNVBAcMBkJvZG1pbjEWMBQGA1UECgwNTWlj
cm90ZXN0IEx0ZDESMBAGA1UECwwJU1BJREVSOkNBMQ8wDQYDVQQDDAZTUElERVIw
HhcNMTgwNTIzMTM1ODU3WhcNMTkwNTIyMTM1ODU3WjBqMQswCQYDVQQGEwJVSzER
MA8GA1UECAwIQ29ybndhbGwxFjAUBgNVBAoMDU1pY3JvdGVzdCBMdGQxFjAUBgNV
BAsMDVNQSURFUjpDTElFTlQxGDAWBgNVBAMMD0Fwb2xsbzpTUUxTdWl0ZTCCASIw
DQYJKoZIhvcNAQEBBQADggEPADCCAQoCggEBALro83NmZ6knXyzyfzw1de65HmXi
3KVSxREedoyrPgjqNy4xRYeK4QbBYFrIJNT2/mOJ5zjmESd7SF5HgmANkLW6HvJc
ASVNj8N6x0op3P2T/P8c85Rwt/6ZvFdzy7u0oOM8Kawz0+PwmJ5kFcsVineQtqkH
Xp3fv4K8DLiAhZwUb9EPoczla+sA3mFS5TZAzBBkIC4lQTQ4eHFBL3AEqItuUJJZ
WGcOB6kGpSIbDRoEd1NYNYXwDWFf6Btg56ufkPVqFTg6QyZ1Qmu24AdQ0jj1+j+E
+mbcrgz03tAQQvXwXgN/XBcnS3v6z5YxMNEKvZPN8iFRhOUegQoIbQrrSo8CAwEA
AaN7MHkwCQYDVR0TBAIwADAsBglghkgBhvhCAQ0EHxYdT3BlblNTTCBHZW5lcmF0
ZWQgQ2VydGlmaWNhdGUwHQYDVR0OBBYEFGFajHnk1bHz/RLJePt4RR4i2xacMB8G
A1UdIwQYMBaAFIpTcZD1da9AW33vIjY4Bc4xuBfjMA0GCSqGSIb3DQEBCwUAA4IB
AQAfdTIC6vifMGbTceWKn1ZUGRW99A6H/7CAUD7J1ItuC+wTEMwae0vSBPmkPbZj
j+56hTW52QloTBDnH5RaFvCnKbs3HxTQt4KT/m/F67r9Lypl96WDdI/NFdK1dH92
dJqHnQ7DoxXOiykEIiT2N8JqCoZ0QcDRQK+J1BTv3MR5yecDAm6eCVTuGNnxaYaW
eaZyY3Pm8EKYxqHUQQEw+PbFLKzs/u0I7l3yRLKRRsSDtlB5j9WIVQnpMTiXZM38
hnowI+uWoTWEjNIh0csmQ9EK87vJQGuHXR1NFrBA1V1O/KlRIQLU6CByAWTLcix5
HSZ25o35UBLXOT8nm880J6de
-----END CERTIFICATE-----
