Certificate:
    Data:
        Version: 3 (0x2)
        Serial Number: 6 (0x6)
    Signature Algorithm: sha256WithRSAEncryption
        Issuer: C=UK, ST=Cornwall, L=Bodmin, O=Microtest Ltd, OU=SPIDER:CA, CN=SPIDER
        Validity
            Not Before: Oct  3 11:17:28 2017 GMT
            Not After : Oct  4 11:17:28 2018 GMT
        Subject: C=UK, ST=Cornwall, O=Microtest Ltd, OU=SPIDER:CLIENT, CN=Lexacom:Dictation
        Subject Public Key Info:
            Public Key Algorithm: rsaEncryption
                Public-Key: (2048 bit)
                Modulus:
                    00:c3:f8:92:fd:83:37:c4:de:90:14:10:b5:7a:30:
                    d9:be:a4:87:22:12:02:06:6a:ec:9e:d1:57:a5:23:
                    5a:d7:db:f4:54:72:d5:63:e8:7c:1f:59:a6:f4:07:
                    0d:e6:b2:20:a4:fc:79:46:30:9f:53:9f:27:3e:5a:
                    34:d6:c6:7c:15:b9:27:40:6f:c4:41:c6:54:80:b0:
                    ea:69:96:9c:1c:5f:a5:87:a5:25:04:7f:d1:da:b3:
                    d4:ab:70:f7:7c:35:b1:03:6b:cc:d3:25:a3:e0:8e:
                    ef:32:a7:03:91:e8:23:d8:65:de:50:80:8d:b9:dd:
                    b8:f3:ca:3d:06:06:f7:8d:90:18:8d:76:a9:31:17:
                    24:5e:59:c4:bd:76:fc:9d:68:d1:26:de:64:d7:ec:
                    e4:60:b0:d6:f0:12:6c:a9:ac:65:b9:aa:cb:ed:f4:
                    be:8b:08:4e:b7:d1:fe:81:6e:23:40:f9:89:53:11:
                    da:b3:f9:76:bd:7b:93:14:f7:ab:20:e0:b2:92:a4:
                    bf:83:b3:9a:cf:76:15:2b:ac:57:dd:ce:9a:92:95:
                    63:d9:f3:61:d2:59:76:66:6d:33:3b:19:01:0a:04:
                    a3:cc:e3:ed:6b:24:23:8d:da:d2:88:64:ba:81:1c:
                    fa:e3:7a:83:97:7f:3a:5b:58:74:08:f4:37:a4:48:
                    d3:99
                Exponent: 65537 (0x10001)
        X509v3 extensions:
            X509v3 Basic Constraints: 
                CA:FALSE
            Netscape Comment: 
                OpenSSL Generated Certificate
            X509v3 Subject Key Identifier: 
                83:5D:DA:3D:F9:DD:D8:47:E6:44:32:AB:34:C9:17:18:3C:4F:72:E8
            X509v3 Authority Key Identifier: 
                keyid:8A:53:71:90:F5:75:AF:40:5B:7D:EF:22:36:38:05:CE:31:B8:17:E3

    Signature Algorithm: sha256WithRSAEncryption
         49:66:af:15:aa:30:59:b8:e0:44:a4:bc:b3:13:93:32:59:d7:
         f9:b4:b3:ce:9a:91:09:e6:d4:bc:c5:35:bd:9f:88:9b:3e:bf:
         9b:26:29:88:f2:82:c3:02:ac:83:f8:45:bd:30:75:5b:d2:e6:
         7e:dd:c8:4e:5b:04:e1:82:15:54:d8:04:e6:38:7e:f4:d2:cc:
         bc:3d:c4:10:6f:fe:dc:55:6a:6f:e4:fa:c8:94:dd:57:2a:cd:
         87:c4:cf:7e:55:ed:b3:0d:c0:56:f0:ff:13:67:5a:33:91:df:
         54:c6:07:6d:58:63:e6:47:7f:b3:ab:37:b5:47:92:42:bf:5c:
         4f:5f:37:7d:0e:35:d2:d7:36:b1:c8:10:a8:f4:dc:9b:0c:14:
         7c:00:ad:35:5d:96:cd:9c:b3:38:71:28:94:b4:fc:c4:e1:a0:
         b1:32:03:8a:55:ca:d2:3c:8f:16:0a:33:21:11:9a:f9:17:2b:
         ac:ae:52:f6:01:7e:28:12:7e:1f:22:d4:04:b5:a7:34:f4:58:
         2a:bc:12:9d:be:b3:8b:ee:4f:42:54:3f:64:52:da:9d:e7:29:
         55:c5:9e:dc:af:eb:b8:89:cf:ff:f5:85:16:87:d4:28:4e:a0:
         c1:87:48:8f:1e:9d:ab:b6:f1:b4:67:30:4a:22:98:2a:9b:30:
         a2:55:1f:0b
-----BEGIN CERTIFICATE-----
MIID0DCCArigAwIBAgIBBjANBgkqhkiG9w0BAQsFADBuMQswCQYDVQQGEwJVSzER
MA8GA1UECAwIQ29ybndhbGwxDzANBgNVBAcMBkJvZG1pbjEWMBQGA1UECgwNTWlj
cm90ZXN0IEx0ZDESMBAGA1UECwwJU1BJREVSOkNBMQ8wDQYDVQQDDAZTUElERVIw
HhcNMTcxMDAzMTExNzI4WhcNMTgxMDA0MTExNzI4WjBsMQswCQYDVQQGEwJVSzER
MA8GA1UECAwIQ29ybndhbGwxFjAUBgNVBAoMDU1pY3JvdGVzdCBMdGQxFjAUBgNV
BAsMDVNQSURFUjpDTElFTlQxGjAYBgNVBAMMEUxleGFjb206RGljdGF0aW9uMIIB
IjANBgkqhkiG9w0BAQEFAAOCAQ8AMIIBCgKCAQEAw/iS/YM3xN6QFBC1ejDZvqSH
IhICBmrsntFXpSNa19v0VHLVY+h8H1mm9AcN5rIgpPx5RjCfU58nPlo01sZ8Fbkn
QG/EQcZUgLDqaZacHF+lh6UlBH/R2rPUq3D3fDWxA2vM0yWj4I7vMqcDkegj2GXe
UICNud2488o9Bgb3jZAYjXapMRckXlnEvXb8nWjRJt5k1+zkYLDW8BJsqaxluarL
7fS+iwhOt9H+gW4jQPmJUxHas/l2vXuTFPerIOCykqS/g7Oaz3YVK6xX3c6akpVj
2fNh0ll2Zm0zOxkBCgSjzOPtayQjjdrSiGS6gRz643qDl386W1h0CPQ3pEjTmQID
AQABo3sweTAJBgNVHRMEAjAAMCwGCWCGSAGG+EIBDQQfFh1PcGVuU1NMIEdlbmVy
YXRlZCBDZXJ0aWZpY2F0ZTAdBgNVHQ4EFgQUg13aPfnd2EfmRDKrNMkXGDxPcugw
HwYDVR0jBBgwFoAUilNxkPV1r0Bbfe8iNjgFzjG4F+MwDQYJKoZIhvcNAQELBQAD
ggEBAElmrxWqMFm44ESkvLMTkzJZ1/m0s86akQnm1LzFNb2fiJs+v5smKYjygsMC
rIP4Rb0wdVvS5n7dyE5bBOGCFVTYBOY4fvTSzLw9xBBv/txVam/k+siU3VcqzYfE
z35V7bMNwFbw/xNnWjOR31TGB21YY+ZHf7OrN7VHkkK/XE9fN30ONdLXNrHIEKj0
3JsMFHwArTVdls2cszhxKJS0/MThoLEyA4pVytI8jxYKMyERmvkXK6yuUvYBfigS
fh8i1AS1pzT0WCq8Ep2+s4vuT0JUP2RS2p3nKVXFntyv67iJz//1hRaH1ChOoMGH
SI8enau28bRnMEoimCqbMKJVHws=
-----END CERTIFICATE-----
-----BEGIN CERTIFICATE-----
MIIDsjCCApqgAwIBAgIJAIBG0W2mddQDMA0GCSqGSIb3DQEBCwUAMG4xCzAJBgNV
BAYTAlVLMREwDwYDVQQIDAhDb3Jud2FsbDEPMA0GA1UEBwwGQm9kbWluMRYwFAYD
VQQKDA1NaWNyb3Rlc3QgTHRkMRIwEAYDVQQLDAlTUElERVI6Q0ExDzANBgNVBAMM
BlNQSURFUjAeFw0xNzA4MDQxNTMyMzNaFw0zOTA2MzAxNTMyMzNaMG4xCzAJBgNV
BAYTAlVLMREwDwYDVQQIDAhDb3Jud2FsbDEPMA0GA1UEBwwGQm9kbWluMRYwFAYD
VQQKDA1NaWNyb3Rlc3QgTHRkMRIwEAYDVQQLDAlTUElERVI6Q0ExDzANBgNVBAMM
BlNQSURFUjCCASIwDQYJKoZIhvcNAQEBBQADggEPADCCAQoCggEBAMGmI5/R+VS2
tPqUXYRYPr2idlljgE8MWyAymYzUy7QMB37m45dBMSz3E43q/PVnO2l6Fy4VL8g7
dEYrk8gwftb0bbt69QzW02ES6diaM/1Jub3oZxS027Zs0+Dcv/OHz4ousZMpkSLj
qyfcO9vxxVZ/1FZJfIoqcFtAME4Ni4wqs2FCY4drdJZHBK5cj+b7bbqRf2Jt7iLL
vD76VGa3I6cMt6A0FgZxDvCfowUzxL8bEIIHMyrM000y6XLU9nriDx0lTAiShpvF
RxTxd+F9CtpeM9B2EChilVq/SjK0sPs8hj5UohJjaGNE1+j2WHHomJ/sW9616w3Z
0Ph9/3G0AeMCAwEAAaNTMFEwHQYDVR0OBBYEFIpTcZD1da9AW33vIjY4Bc4xuBfj
MB8GA1UdIwQYMBaAFIpTcZD1da9AW33vIjY4Bc4xuBfjMA8GA1UdEwEB/wQFMAMB
Af8wDQYJKoZIhvcNAQELBQADggEBAK7GuFOQeLZ2YHXGcgk9IPePZEG9H3ARwUOX
bbAFXueXCGgDAtT8psKItjmye/LVkdlKp2F/WMPtQ2GbYb2abadRp4Tpln9vV4l5
RKgeCvKfl1mr7xWyMpK79QHehTHYq6SVuk7CS95+XTmae8lSQNjORnH7LEIIg3CL
8OzVpDkc63+gOxFmFdLP1+u9TzeCIqM3cEw51vCpRGlMzxODT8hIuVEBCT8vV6mC
VlBL6QbV/rpLI/GBrhkDGKmRd30IFkfd433ISN+IGZ8+fSARmhzWDksCCU5CNvSR
rEVlaCFKJrgKKiLPwHGVeONcAcbd5OLvGrb+azve13FhNcdXGCI=
-----END CERTIFICATE-----
-----BEGIN RSA PRIVATE KEY-----
MIIEpAIBAAKCAQEAw/iS/YM3xN6QFBC1ejDZvqSHIhICBmrsntFXpSNa19v0VHLV
Y+h8H1mm9AcN5rIgpPx5RjCfU58nPlo01sZ8FbknQG/EQcZUgLDqaZacHF+lh6Ul
BH/R2rPUq3D3fDWxA2vM0yWj4I7vMqcDkegj2GXeUICNud2488o9Bgb3jZAYjXap
MRckXlnEvXb8nWjRJt5k1+zkYLDW8BJsqaxluarL7fS+iwhOt9H+gW4jQPmJUxHa
s/l2vXuTFPerIOCykqS/g7Oaz3YVK6xX3c6akpVj2fNh0ll2Zm0zOxkBCgSjzOPt
ayQjjdrSiGS6gRz643qDl386W1h0CPQ3pEjTmQIDAQABAoIBACHoAS6hpGWIiG8g
UPXaO+JTPxoy+Wy41UXJPJvS2SXd5ZEy6R7HG6qk7VDtY4dVrHY/RJBTW02xjK2q
F9hNMSzlAxiP/enPcdFuSrCIIWx7U/17IkN8BggL8zDSc89mzsCjxyWFLqxsrpAZ
+3EkNAd94JAXHe5ZoWV0yUggrnYseSGOMHtN7uhJawTqAIfSsigR8OYRAGt1VWZW
KZWgNeugpdxeR8G7a3H09mUOH4s4EsGqzwiFgO/dvXlqq3lwuoYP/yChfEVdawgj
wv5Buuzw07I52saF3ZerFjJcbuS7MAK9/kuV+MnYPSVfAV2MPxv++ckD2R2/dYmo
3oIS5T0CgYEA/kLPsgjdza9WAQJ/UgnmI/SEw/XPFXZgSlrLO1J0rmCCIpBd+Qgj
/o83d1dr2qRzrDD/OXi/euxvYDYQeYqMbJL+u5td4qBmRlqwgAmjyS71vbWXJBsk
FpYXmyB69ah4EeVv54OurHt4iEdj7c3qy7TOcAohMBuc25sOELVVu58CgYEAxU+z
xAgh/UBblP0SgBFZaAa06GJg2c9AHchsvW94S+iCdi7rUcJOd0ak81o4ucgsO98v
5XORAedtvvrOEWmfTCTvEenmwYi4yZDesXhaYijzpLfu8i/vfvsDFBYiBgbPfmv6
1ERVmcEPqJyd8OxqLtDLmUaTBnFMfOH7Ame6JccCgYBjHBPtp/sdk/0IQ7rxdZ5Z
4ZRm9kgUa6I5GY8ivo9w8XmIk5Gt4vh038qVIGSQQ447TpYOBv1MoyD+9dQSLGl0
YRAefP9puXBkeDFYl2laoI11t3UEw/ebPkJRW6XSYCr9ftvR+Mh7v11KcdmH9r5R
TVcy4R/yqrDIAXbIGIckrQKBgQCB644x6S0ARa1H+C+DVmkpfykFzyl4oefU9JDt
V4W9bdbhnNlkF251SXX5qxGo+u5tafNuwV7dAxcXZqvjeUnj6HnmsL459x29039f
GiFhexebAWX74KZxVTTcuAolL7zWwKEDvg8jU6VM3/t7lSABvYgiX/8VgercXCxc
lBJVJwKBgQD1t6ZnFxK851Ec1sqwiGyIMU+dlk4bNoGn0foUlHtb/6cp5AxgWdkB
X3inEseyJ8ZwJY664hHh49BLNHgrpuoQOkSwmj+8UKO50e+hgoDItXT23vwy/yU2
AFnrddUl+kPNopLwxA98JQX+9tR+4QMFFkmbtkkTiYAiI7T6m6Eugg==
-----END RSA PRIVATE KEY-----
