Certificate:
    Data:
        Version: 3 (0x2)
        Serial Number: 7 (0x7)
    Signature Algorithm: sha256WithRSAEncryption
        Issuer: C=UK, ST=Cornwall, L=Bodmin, O=Microtest Ltd, OU=SPIDER:CA, CN=SPIDER
        Validity
            Not Before: Sep  3 12:39:45 2018 GMT
            Not After : Sep  4 12:39:45 2019 GMT
        Subject: C=UK, ST=Cornwall, O=Microtest Ltd, OU=SPIDER:CLIENT, CN=Lexacom:Dictation
        Subject Public Key Info:
            Public Key Algorithm: rsaEncryption
                Public-Key: (2048 bit)
                Modulus:
                    00:c3:f8:92:fd:83:37:c4:de:90:14:10:b5:7a:30:
                    d9:be:a4:87:22:12:02:06:6a:ec:9e:d1:57:a5:23:
                    5a:d7:db:f4:54:72:d5:63:e8:7c:1f:59:a6:f4:07:
                    0d:e6:b2:20:a4:fc:79:46:30:9f:53:9f:27:3e:5a:
                    34:d6:c6:7c:15:b9:27:40:6f:c4:41:c6:54:80:b0:
                    ea:69:96:9c:1c:5f:a5:87:a5:25:04:7f:d1:da:b3:
                    d4:ab:70:f7:7c:35:b1:03:6b:cc:d3:25:a3:e0:8e:
                    ef:32:a7:03:91:e8:23:d8:65:de:50:80:8d:b9:dd:
                    b8:f3:ca:3d:06:06:f7:8d:90:18:8d:76:a9:31:17:
                    24:5e:59:c4:bd:76:fc:9d:68:d1:26:de:64:d7:ec:
                    e4:60:b0:d6:f0:12:6c:a9:ac:65:b9:aa:cb:ed:f4:
                    be:8b:08:4e:b7:d1:fe:81:6e:23:40:f9:89:53:11:
                    da:b3:f9:76:bd:7b:93:14:f7:ab:20:e0:b2:92:a4:
                    bf:83:b3:9a:cf:76:15:2b:ac:57:dd:ce:9a:92:95:
                    63:d9:f3:61:d2:59:76:66:6d:33:3b:19:01:0a:04:
                    a3:cc:e3:ed:6b:24:23:8d:da:d2:88:64:ba:81:1c:
                    fa:e3:7a:83:97:7f:3a:5b:58:74:08:f4:37:a4:48:
                    d3:99
                Exponent: 65537 (0x10001)
        X509v3 extensions:
            X509v3 Basic Constraints: 
                CA:FALSE
            Netscape Comment: 
                OpenSSL Generated Certificate
            X509v3 Subject Key Identifier: 
                83:5D:DA:3D:F9:DD:D8:47:E6:44:32:AB:34:C9:17:18:3C:4F:72:E8
            X509v3 Authority Key Identifier: 
                keyid:8A:53:71:90:F5:75:AF:40:5B:7D:EF:22:36:38:05:CE:31:B8:17:E3

    Signature Algorithm: sha256WithRSAEncryption
         b5:92:a4:e5:96:9d:e2:0e:39:f5:87:c6:e7:75:2a:96:4a:04:
         d6:9d:61:52:74:8a:9f:03:1b:aa:8c:e3:8e:ea:fd:bf:4b:a0:
         15:44:b2:5b:be:47:17:d4:ac:71:17:c8:05:b8:1c:f4:f4:12:
         bf:f3:6b:7c:00:c7:34:2e:ca:37:34:43:67:96:e1:76:7f:1e:
         f4:46:04:a7:2f:93:54:35:83:78:57:c9:c9:30:5e:28:7e:f7:
         8b:5e:88:3a:b7:88:e6:29:e8:e2:e6:c3:13:ae:2e:9c:35:35:
         9e:2e:17:82:f0:f0:0c:f1:77:b0:d9:f3:1a:ea:ad:16:34:bf:
         24:05:89:cb:d4:46:89:9f:5e:8a:4e:cf:ae:e5:34:c1:86:b2:
         fa:b9:8e:53:ef:30:55:c1:15:ac:71:67:45:54:63:d2:2e:7c:
         05:a4:bc:4f:ba:6f:86:75:1b:b0:00:31:d9:57:6f:93:7b:79:
         14:29:9b:63:2b:69:76:a8:e8:17:ff:96:06:fd:a2:9d:fd:c6:
         9e:66:3c:f0:46:69:55:25:e8:ce:21:0d:75:75:0f:a0:87:40:
         b2:4b:2e:31:a3:52:71:88:2f:48:e9:28:16:0a:e0:0c:43:27:
         e4:8f:0e:18:bd:89:94:9d:25:c2:67:1e:eb:e6:b4:c7:b9:35:
         73:b7:50:14
-----BEGIN CERTIFICATE-----
MIID0DCCArigAwIBAgIBBzANBgkqhkiG9w0BAQsFADBuMQswCQYDVQQGEwJVSzER
MA8GA1UECAwIQ29ybndhbGwxDzANBgNVBAcMBkJvZG1pbjEWMBQGA1UECgwNTWlj
cm90ZXN0IEx0ZDESMBAGA1UECwwJU1BJREVSOkNBMQ8wDQYDVQQDDAZTUElERVIw
HhcNMTgwOTAzMTIzOTQ1WhcNMTkwOTA0MTIzOTQ1WjBsMQswCQYDVQQGEwJVSzER
MA8GA1UECAwIQ29ybndhbGwxFjAUBgNVBAoMDU1pY3JvdGVzdCBMdGQxFjAUBgNV
BAsMDVNQSURFUjpDTElFTlQxGjAYBgNVBAMMEUxleGFjb206RGljdGF0aW9uMIIB
IjANBgkqhkiG9w0BAQEFAAOCAQ8AMIIBCgKCAQEAw/iS/YM3xN6QFBC1ejDZvqSH
IhICBmrsntFXpSNa19v0VHLVY+h8H1mm9AcN5rIgpPx5RjCfU58nPlo01sZ8Fbkn
QG/EQcZUgLDqaZacHF+lh6UlBH/R2rPUq3D3fDWxA2vM0yWj4I7vMqcDkegj2GXe
UICNud2488o9Bgb3jZAYjXapMRckXlnEvXb8nWjRJt5k1+zkYLDW8BJsqaxluarL
7fS+iwhOt9H+gW4jQPmJUxHas/l2vXuTFPerIOCykqS/g7Oaz3YVK6xX3c6akpVj
2fNh0ll2Zm0zOxkBCgSjzOPtayQjjdrSiGS6gRz643qDl386W1h0CPQ3pEjTmQID
AQABo3sweTAJBgNVHRMEAjAAMCwGCWCGSAGG+EIBDQQfFh1PcGVuU1NMIEdlbmVy
YXRlZCBDZXJ0aWZpY2F0ZTAdBgNVHQ4EFgQUg13aPfnd2EfmRDKrNMkXGDxPcugw
HwYDVR0jBBgwFoAUilNxkPV1r0Bbfe8iNjgFzjG4F+MwDQYJKoZIhvcNAQELBQAD
ggEBALWSpOWWneIOOfWHxud1KpZKBNadYVJ0ip8DG6qM447q/b9LoBVEslu+RxfU
rHEXyAW4HPT0Er/za3wAxzQuyjc0Q2eW4XZ/HvRGBKcvk1Q1g3hXyckwXih+94te
iDq3iOYp6OLmwxOuLpw1NZ4uF4Lw8Azxd7DZ8xrqrRY0vyQFicvURomfXopOz67l
NMGGsvq5jlPvMFXBFaxxZ0VUY9IufAWkvE+6b4Z1G7AAMdlXb5N7eRQpm2MraXao
6Bf/lgb9op39xp5mPPBGaVUl6M4hDXV1D6CHQLJLLjGjUnGIL0jpKBYK4AxDJ+SP
Dhi9iZSdJcJnHuvmtMe5NXO3UBQ=
-----END CERTIFICATE-----
