Certificate:
    Data:
        Version: 3 (0x2)
        Serial Number: 5 (0x5)
    Signature Algorithm: sha256WithRSAEncryption
        Issuer: C=UK, ST=Cornwall, L=Bodmin, O=Microtest Ltd, OU=SPIDER:CA, CN=SPIDER
        Validity
            Not Before: Oct  3 11:03:21 2017 GMT
            Not After : Oct  4 11:03:21 2018 GMT
        Subject: C=UK, ST=Cornwall, O=Microtest Ltd, OU=SPIDER:CLIENT, CN=Medibooks:Billing
        Subject Public Key Info:
            Public Key Algorithm: rsaEncryption
                Public-Key: (2048 bit)
                Modulus:
                    00:bf:a8:c8:4f:f2:3e:4e:8a:f1:c6:c8:8d:da:d2:
                    cb:94:5c:0e:1f:94:75:de:2c:f4:c3:15:c6:3b:ae:
                    ef:68:74:8a:ff:26:74:dd:8e:09:97:c7:9c:72:53:
                    05:30:d9:ae:50:73:71:19:1b:be:1a:b7:6f:18:6b:
                    6a:c1:90:e0:67:14:e9:92:9f:31:bc:f7:f1:89:1e:
                    76:0a:e2:c5:2b:3c:1a:52:71:8f:d2:0e:f9:75:5b:
                    7a:e1:fb:43:9a:b5:dd:15:94:9d:ac:f4:9f:28:e1:
                    bc:d0:b3:98:00:d1:47:ba:fe:73:d0:e4:24:d7:fa:
                    a5:a4:e8:3e:30:be:00:e5:c7:28:b6:2d:3c:12:75:
                    b4:fb:11:0a:8b:70:63:bf:24:9b:ef:06:c5:a4:d8:
                    1a:f7:4e:56:ea:8a:65:92:f7:83:f8:65:93:16:cb:
                    b9:14:70:99:31:7c:24:00:3a:05:35:7d:d0:2f:3e:
                    9e:f0:50:3f:6a:d0:86:d3:2a:4c:f7:97:14:8e:89:
                    8a:52:9f:c6:d7:d4:bd:f4:4a:49:89:ec:20:6d:56:
                    79:3d:84:8f:09:2e:d3:ba:b0:ac:df:f4:cd:b3:6e:
                    d8:f3:af:f4:d0:47:e0:45:5a:14:ce:3f:e6:d3:c2:
                    1b:9f:98:6a:a6:66:c7:d5:e8:14:d2:d8:0f:af:45:
                    5c:9b
                Exponent: 65537 (0x10001)
        X509v3 extensions:
            X509v3 Basic Constraints: 
                CA:FALSE
            Netscape Comment: 
                OpenSSL Generated Certificate
            X509v3 Subject Key Identifier: 
                AC:CE:15:A0:60:6F:B6:FA:1E:43:7E:3E:67:0F:03:70:24:FC:35:55
            X509v3 Authority Key Identifier: 
                keyid:8A:53:71:90:F5:75:AF:40:5B:7D:EF:22:36:38:05:CE:31:B8:17:E3

    Signature Algorithm: sha256WithRSAEncryption
         58:d3:8b:33:f9:a3:2a:4c:b6:da:e3:62:9d:50:ee:32:d6:16:
         41:dc:7a:8b:46:fe:f3:82:3f:9a:16:46:5b:d9:9e:fe:26:35:
         a1:76:18:28:f5:b2:55:f9:1a:44:52:4c:f6:f1:2f:1b:83:06:
         c8:f6:86:05:ab:97:75:39:ed:9e:bb:72:2f:6f:1d:47:0c:28:
         47:f9:9f:27:0e:a5:2a:21:ef:11:a7:9a:3d:03:6b:7f:4c:2b:
         58:46:c8:87:e9:4b:7e:84:67:99:a0:00:e4:74:5f:e3:bf:5f:
         0a:7e:ee:f5:38:ad:67:c5:0c:c7:7f:5e:cc:ad:f4:0b:53:58:
         d9:6e:ec:80:d3:7d:7f:61:65:35:1b:cc:ee:a4:44:40:46:ed:
         84:87:06:13:7c:a4:c2:40:47:80:d9:fc:a0:14:1d:79:2b:14:
         59:11:4f:f9:a1:30:78:8f:9f:d1:b7:5a:b1:c9:1c:72:a8:6e:
         8b:fe:7a:9d:57:0a:2f:eb:ee:6e:b1:89:a2:23:a8:29:07:28:
         8f:8c:f4:93:e3:94:74:2b:df:8f:5d:86:7d:f0:20:6b:fd:37:
         76:30:a7:28:64:da:92:4a:ac:22:e6:d1:cd:54:24:61:37:d6:
         47:f1:6a:0c:99:9f:af:b0:ef:8e:e6:fb:0a:a7:66:35:29:cd:
         7d:82:3e:8d
-----BEGIN CERTIFICATE-----
MIID0DCCArigAwIBAgIBBTANBgkqhkiG9w0BAQsFADBuMQswCQYDVQQGEwJVSzER
MA8GA1UECAwIQ29ybndhbGwxDzANBgNVBAcMBkJvZG1pbjEWMBQGA1UECgwNTWlj
cm90ZXN0IEx0ZDESMBAGA1UECwwJU1BJREVSOkNBMQ8wDQYDVQQDDAZTUElERVIw
HhcNMTcxMDAzMTEwMzIxWhcNMTgxMDA0MTEwMzIxWjBsMQswCQYDVQQGEwJVSzER
MA8GA1UECAwIQ29ybndhbGwxFjAUBgNVBAoMDU1pY3JvdGVzdCBMdGQxFjAUBgNV
BAsMDVNQSURFUjpDTElFTlQxGjAYBgNVBAMMEU1lZGlib29rczpCaWxsaW5nMIIB
IjANBgkqhkiG9w0BAQEFAAOCAQ8AMIIBCgKCAQEAv6jIT/I+TorxxsiN2tLLlFwO
H5R13iz0wxXGO67vaHSK/yZ03Y4Jl8ecclMFMNmuUHNxGRu+GrdvGGtqwZDgZxTp
kp8xvPfxiR52CuLFKzwaUnGP0g75dVt64ftDmrXdFZSdrPSfKOG80LOYANFHuv5z
0OQk1/qlpOg+ML4A5ccoti08EnW0+xEKi3BjvySb7wbFpNga905W6oplkveD+GWT
Fsu5FHCZMXwkADoFNX3QLz6e8FA/atCG0ypM95cUjomKUp/G19S99EpJiewgbVZ5
PYSPCS7TurCs3/TNs27Y86/00EfgRVoUzj/m08Ibn5hqpmbH1egU0tgPr0VcmwID
AQABo3sweTAJBgNVHRMEAjAAMCwGCWCGSAGG+EIBDQQfFh1PcGVuU1NMIEdlbmVy
YXRlZCBDZXJ0aWZpY2F0ZTAdBgNVHQ4EFgQUrM4VoGBvtvoeQ34+Zw8DcCT8NVUw
HwYDVR0jBBgwFoAUilNxkPV1r0Bbfe8iNjgFzjG4F+MwDQYJKoZIhvcNAQELBQAD
ggEBAFjTizP5oypMttrjYp1Q7jLWFkHceotG/vOCP5oWRlvZnv4mNaF2GCj1slX5
GkRSTPbxLxuDBsj2hgWrl3U57Z67ci9vHUcMKEf5nycOpSoh7xGnmj0Da39MK1hG
yIfpS36EZ5mgAOR0X+O/Xwp+7vU4rWfFDMd/Xsyt9AtTWNlu7IDTfX9hZTUbzO6k
REBG7YSHBhN8pMJAR4DZ/KAUHXkrFFkRT/mhMHiPn9G3WrHJHHKobov+ep1XCi/r
7m6xiaIjqCkHKI+M9JPjlHQr349dhn3wIGv9N3Ywpyhk2pJKrCLm0c1UJGE31kfx
agyZn6+w747m+wqnZjUpzX2CPo0=
-----END CERTIFICATE-----
-----BEGIN CERTIFICATE-----
MIIDsjCCApqgAwIBAgIJAIBG0W2mddQDMA0GCSqGSIb3DQEBCwUAMG4xCzAJBgNV
BAYTAlVLMREwDwYDVQQIDAhDb3Jud2FsbDEPMA0GA1UEBwwGQm9kbWluMRYwFAYD
VQQKDA1NaWNyb3Rlc3QgTHRkMRIwEAYDVQQLDAlTUElERVI6Q0ExDzANBgNVBAMM
BlNQSURFUjAeFw0xNzA4MDQxNTMyMzNaFw0zOTA2MzAxNTMyMzNaMG4xCzAJBgNV
BAYTAlVLMREwDwYDVQQIDAhDb3Jud2FsbDEPMA0GA1UEBwwGQm9kbWluMRYwFAYD
VQQKDA1NaWNyb3Rlc3QgTHRkMRIwEAYDVQQLDAlTUElERVI6Q0ExDzANBgNVBAMM
BlNQSURFUjCCASIwDQYJKoZIhvcNAQEBBQADggEPADCCAQoCggEBAMGmI5/R+VS2
tPqUXYRYPr2idlljgE8MWyAymYzUy7QMB37m45dBMSz3E43q/PVnO2l6Fy4VL8g7
dEYrk8gwftb0bbt69QzW02ES6diaM/1Jub3oZxS027Zs0+Dcv/OHz4ousZMpkSLj
qyfcO9vxxVZ/1FZJfIoqcFtAME4Ni4wqs2FCY4drdJZHBK5cj+b7bbqRf2Jt7iLL
vD76VGa3I6cMt6A0FgZxDvCfowUzxL8bEIIHMyrM000y6XLU9nriDx0lTAiShpvF
RxTxd+F9CtpeM9B2EChilVq/SjK0sPs8hj5UohJjaGNE1+j2WHHomJ/sW9616w3Z
0Ph9/3G0AeMCAwEAAaNTMFEwHQYDVR0OBBYEFIpTcZD1da9AW33vIjY4Bc4xuBfj
MB8GA1UdIwQYMBaAFIpTcZD1da9AW33vIjY4Bc4xuBfjMA8GA1UdEwEB/wQFMAMB
Af8wDQYJKoZIhvcNAQELBQADggEBAK7GuFOQeLZ2YHXGcgk9IPePZEG9H3ARwUOX
bbAFXueXCGgDAtT8psKItjmye/LVkdlKp2F/WMPtQ2GbYb2abadRp4Tpln9vV4l5
RKgeCvKfl1mr7xWyMpK79QHehTHYq6SVuk7CS95+XTmae8lSQNjORnH7LEIIg3CL
8OzVpDkc63+gOxFmFdLP1+u9TzeCIqM3cEw51vCpRGlMzxODT8hIuVEBCT8vV6mC
VlBL6QbV/rpLI/GBrhkDGKmRd30IFkfd433ISN+IGZ8+fSARmhzWDksCCU5CNvSR
rEVlaCFKJrgKKiLPwHGVeONcAcbd5OLvGrb+azve13FhNcdXGCI=
-----END CERTIFICATE-----
-----BEGIN RSA PRIVATE KEY-----
MIIEowIBAAKCAQEAv6jIT/I+TorxxsiN2tLLlFwOH5R13iz0wxXGO67vaHSK/yZ0
3Y4Jl8ecclMFMNmuUHNxGRu+GrdvGGtqwZDgZxTpkp8xvPfxiR52CuLFKzwaUnGP
0g75dVt64ftDmrXdFZSdrPSfKOG80LOYANFHuv5z0OQk1/qlpOg+ML4A5ccoti08
EnW0+xEKi3BjvySb7wbFpNga905W6oplkveD+GWTFsu5FHCZMXwkADoFNX3QLz6e
8FA/atCG0ypM95cUjomKUp/G19S99EpJiewgbVZ5PYSPCS7TurCs3/TNs27Y86/0
0EfgRVoUzj/m08Ibn5hqpmbH1egU0tgPr0VcmwIDAQABAoIBAGyVqXdx3U8OdVCU
C5pwVxqk1PObXvQTMFDeo0LpJ4ZckOth1FA5ysGNO9uhoY09pv65iNga2ae1SWHi
acdk115PgM2rF7jiGJwBAAvG0sJd+OPApyTxiu+sdoBVpMWgR7OUUYjNxuaYjisH
tRSxfRw6UU+GEkGzJem6EpH28/c51X0fcGz+mCV+N//CXq0mPAXyZ9QQFK3Hwp2H
Lm1Wd+WPWqJStAFAiao5iWXqjAziqnvcFb11jI8biZL5J0EoreKZ63a9xEgQ5T9l
XqtNSjjvg6pwhyA2uNToRpjaiUhOtO+/SdIjUK7FNgtZzV1GplYP6hZqKc3CtNBa
amgGMfECgYEA5NBoPNd0BG6haJP2+ta6Sqac8nCnUBRYfH20Z3MQaQGmHt8tJSlY
pLcfnw2bHjEjP8Whgyo3LS1yCCy1uVfH4QtNyOPWpep3ohxZEATBZa7xr3vrf5Ep
kGo9DyFublUcE8GqfzF+dtwa58QbbBL542XhrmOGPO2dd+r6Z0u/dhUCgYEA1m5H
L4unWPUxCEi7imtd6asLwV73RZlrJJ3w+pPBSUvHRW6duHlshNyFEA8Rj7hlmZe4
tC1iprut46ryGZJ9QenpGf9YWhliln+FPVJIyypTN15QHhghVLgSPStbUjUibg6f
VpWU10jNE7DbdbLeVyn28BDR5ZK5i2nZlaxsY+8CgYEApgA0v38n4ldIrpA6bH0A
Jkx+LL1iBQzdrWOdUDgAPc4+cMNFA2LdtpJMVJ4QXXUUt51vsbMc2J/RzPBy3oY6
sp/6zLXO8gwKwweB7cclb9nd6YwjrCbqWqVYqvN8JHuGpSapxSFpOF4y/tYddujF
dh5h/pyhtO5Ggctt4ybnPokCgYARqJE6LCEC5WY9TWgMVR0twgU8zmpElAbLxCn1
KLfRJmlpoVthtrYmFtbqZKNIl6HeTS1LwTUPkAMY7Zn0WyjvhajJmEqZWN/SjvvU
+fK+sGSb+atVXx1XkbUGzow9r9x+/btHcRgJxpgE2Bqqjalbujv4txnh8vxOq8/c
UI+4hwKBgHgwhZJpAQRcRXKMPAiSY1PlkKxFydQEEEZfquYojXP6FF6yY8XrKgRV
5U3R+xodVnco5ecl1uvuaBc7HM79PFyZrFfHxrhMjK839Qun5sEGzXhS4+EjZXpx
y9sVMU0fX2rGP0RJgHb6FzfVjTs2N3Lp+SnBu3qVSBxuwHYYEKr2
-----END RSA PRIVATE KEY-----
