Certificate:
    Data:
        Version: 3 (0x2)
        Serial Number: 9 (0x9)
    Signature Algorithm: sha256WithRSAEncryption
        Issuer: C=UK, ST=Cornwall, L=Bodmin, O=Microtest Ltd, OU=SPIDER:CA, CN=SPIDER
        Validity
            Not Before: May 15 14:02:53 2018 GMT
            Not After : May 14 14:02:53 2019 GMT
        Subject: C=UK, ST=Cornwall, O=Microtest Ltd, OU=SPIDER:CLIENT, CN=Microtest:PatientBanner
        Subject Public Key Info:
            Public Key Algorithm: rsaEncryption
                Public-Key: (2048 bit)
                Modulus:
                    00:d7:79:0b:57:77:da:4b:eb:e5:c3:24:ac:72:da:
                    e9:84:dc:d5:f5:c5:52:f7:bc:c3:b7:48:d8:07:5c:
                    6d:b4:26:c3:73:d7:34:fc:c9:3a:89:15:e3:c3:aa:
                    04:d8:43:5f:43:10:9b:dd:43:29:99:d7:2e:08:18:
                    ee:1e:12:0a:9a:6b:35:a0:58:cd:a2:7e:ac:ee:c8:
                    74:9d:7f:f1:92:1e:22:07:4b:94:4d:1c:5a:fb:53:
                    d8:cd:ee:f4:f1:45:93:c3:08:d8:da:eb:59:66:f6:
                    fe:87:c0:bb:48:4c:f8:1f:b0:f1:91:58:cd:83:ae:
                    2b:1d:ef:21:41:50:0f:8b:66:c0:11:c7:d9:2a:0a:
                    a7:da:f4:5d:a9:8c:5d:93:7e:96:6b:33:fc:a4:83:
                    b0:65:4e:fb:88:d0:d1:bf:6f:1c:2a:0c:0b:b5:0f:
                    ba:9b:f5:94:8b:6f:d5:6f:e4:b9:a6:63:53:e9:5e:
                    74:64:5b:20:eb:1b:ba:6c:9f:88:b0:8b:66:02:68:
                    cc:e6:1f:07:e4:1e:bc:77:d6:69:e5:d0:47:32:aa:
                    b4:aa:2c:67:c9:d1:82:cc:bf:57:e0:89:14:ae:0b:
                    a0:7c:f0:f1:16:33:c7:60:7b:57:b7:3c:f2:8c:81:
                    5c:7f:36:11:bf:e3:51:ee:25:c6:9d:d7:7c:3e:40:
                    15:8d
                Exponent: 65537 (0x10001)
        X509v3 extensions:
            X509v3 Basic Constraints: 
                CA:FALSE
            Netscape Comment: 
                OpenSSL Generated Certificate
            X509v3 Subject Key Identifier: 
                29:C1:B6:60:21:37:51:95:B8:32:E6:16:13:90:FC:54:27:BD:FE:85
            X509v3 Authority Key Identifier: 
                keyid:8A:53:71:90:F5:75:AF:40:5B:7D:EF:22:36:38:05:CE:31:B8:17:E3

    Signature Algorithm: sha256WithRSAEncryption
         99:0d:9b:25:1d:f8:80:4e:4f:0a:52:7f:48:e6:7f:c9:63:bd:
         2a:8d:2d:bb:75:3e:06:fc:62:63:54:a8:96:b8:68:62:d3:3d:
         31:dd:c2:33:2d:f7:3c:72:76:a7:7d:ee:24:46:df:ab:fd:9e:
         3f:9f:89:d0:55:27:9c:c6:35:44:9e:0b:44:69:45:9a:20:6a:
         28:91:53:3d:17:9d:29:aa:9c:8a:91:80:70:24:c9:f1:41:e8:
         1b:0b:b6:9b:a5:5e:c1:e3:06:5a:d9:a6:38:07:3a:8d:cf:3a:
         50:fe:b6:d8:fd:9f:3e:97:d0:5f:0b:68:b5:7a:3a:bb:99:b0:
         e8:2f:4a:13:55:71:52:39:8e:ca:97:72:54:ea:9d:bc:16:4d:
         57:90:58:b7:12:d8:d7:a5:b4:58:11:0d:d5:56:56:35:0f:4e:
         da:05:b5:27:23:dd:f1:19:05:bf:50:37:ba:86:8e:17:94:20:
         1f:60:11:45:25:3c:b2:c2:61:11:91:dd:8a:2d:4f:f0:5e:44:
         9b:55:e5:5d:d6:8f:98:55:8d:b2:42:d5:e2:d6:25:e2:80:bc:
         8c:be:c1:d8:e5:bf:1e:69:25:64:a8:7f:cc:60:7a:d1:cd:4c:
         54:09:9f:10:f8:aa:ad:20:d8:68:8b:24:c8:c1:52:81:41:cd:
         6e:31:80:c5
-----BEGIN CERTIFICATE-----
MIID1jCCAr6gAwIBAgIBCTANBgkqhkiG9w0BAQsFADBuMQswCQYDVQQGEwJVSzER
MA8GA1UECAwIQ29ybndhbGwxDzANBgNVBAcMBkJvZG1pbjEWMBQGA1UECgwNTWlj
cm90ZXN0IEx0ZDESMBAGA1UECwwJU1BJREVSOkNBMQ8wDQYDVQQDDAZTUElERVIw
HhcNMTgwNTE1MTQwMjUzWhcNMTkwNTE0MTQwMjUzWjByMQswCQYDVQQGEwJVSzER
MA8GA1UECAwIQ29ybndhbGwxFjAUBgNVBAoMDU1pY3JvdGVzdCBMdGQxFjAUBgNV
BAsMDVNQSURFUjpDTElFTlQxIDAeBgNVBAMMF01pY3JvdGVzdDpQYXRpZW50QmFu
bmVyMIIBIjANBgkqhkiG9w0BAQEFAAOCAQ8AMIIBCgKCAQEA13kLV3faS+vlwySs
ctrphNzV9cVS97zDt0jYB1xttCbDc9c0/Mk6iRXjw6oE2ENfQxCb3UMpmdcuCBju
HhIKmms1oFjNon6s7sh0nX/xkh4iB0uUTRxa+1PYze708UWTwwjY2utZZvb+h8C7
SEz4H7DxkVjNg64rHe8hQVAPi2bAEcfZKgqn2vRdqYxdk36WazP8pIOwZU77iNDR
v28cKgwLtQ+6m/WUi2/Vb+S5pmNT6V50ZFsg6xu6bJ+IsItmAmjM5h8H5B68d9Zp
5dBHMqq0qixnydGCzL9X4IkUrgugfPDxFjPHYHtXtzzyjIFcfzYRv+NR7iXGndd8
PkAVjQIDAQABo3sweTAJBgNVHRMEAjAAMCwGCWCGSAGG+EIBDQQfFh1PcGVuU1NM
IEdlbmVyYXRlZCBDZXJ0aWZpY2F0ZTAdBgNVHQ4EFgQUKcG2YCE3UZW4MuYWE5D8
VCe9/oUwHwYDVR0jBBgwFoAUilNxkPV1r0Bbfe8iNjgFzjG4F+MwDQYJKoZIhvcN
AQELBQADggEBAJkNmyUd+IBOTwpSf0jmf8ljvSqNLbt1Pgb8YmNUqJa4aGLTPTHd
wjMt9zxydqd97iRG36v9nj+fidBVJ5zGNUSeC0RpRZogaiiRUz0XnSmqnIqRgHAk
yfFB6BsLtpulXsHjBlrZpjgHOo3POlD+ttj9nz6X0F8LaLV6OruZsOgvShNVcVI5
jsqXclTqnbwWTVeQWLcS2NeltFgRDdVWVjUPTtoFtScj3fEZBb9QN7qGjheUIB9g
EUUlPLLCYRGR3YotT/BeRJtV5V3Wj5hVjbJC1eLWJeKAvIy+wdjlvx5pJWSof8xg
etHNTFQJnxD4qq0g2GiLJMjBUoFBzW4xgMU=
-----END CERTIFICATE-----
