Certificate:
    Data:
        Version: 3 (0x2)
        Serial Number: 4 (0x4)
    Signature Algorithm: sha256WithRSAEncryption
        Issuer: C=UK, ST=Cornwall, L=Bodmin, O=Microtest Ltd, OU=SPIDER:CA, CN=SPIDER
        Validity
            Not Before: Oct  3 10:45:07 2017 GMT
            Not After : Oct  4 10:45:07 2018 GMT
        Subject: C=UK, ST=Cornwall, O=Microtest Ltd, OU=SPIDER:CLIENT, CN=Niche:iGPR
        Subject Public Key Info:
            Public Key Algorithm: rsaEncryption
                Public-Key: (2048 bit)
                Modulus:
                    00:b2:1d:13:33:14:b3:a1:10:02:bd:03:83:78:85:
                    6e:35:94:e2:78:fd:e2:f0:aa:53:b9:9e:ae:68:9d:
                    09:24:20:ad:00:d6:23:14:8e:ad:0e:5a:66:fe:11:
                    3f:9d:84:34:92:d4:53:f8:e6:d8:5f:d5:3b:59:ee:
                    89:20:49:6b:3a:19:30:ad:c7:97:69:5c:f1:93:04:
                    44:40:9a:87:64:f0:4d:57:ec:c8:7e:e6:ce:db:ec:
                    c5:6d:68:4b:32:e4:a9:a7:50:48:a5:14:39:a3:a9:
                    29:b6:36:9a:4e:dd:de:04:62:d9:8b:1a:50:f1:6e:
                    94:f3:5f:a3:e9:aa:b0:51:f3:77:e2:5f:d5:e7:77:
                    6a:cf:12:ad:ba:30:ab:39:77:f9:02:70:54:e8:f2:
                    12:80:23:dc:7c:9e:29:2b:3c:ff:46:d2:15:82:42:
                    34:e4:a7:d0:66:25:93:63:5b:38:23:6b:9f:82:d9:
                    e7:6f:e1:4e:fd:68:16:b3:3e:1c:cf:3b:8e:b0:9c:
                    41:88:4f:45:0e:94:43:6e:e0:c8:7f:9a:18:c3:5d:
                    67:51:65:5c:23:71:78:44:34:5a:de:47:31:64:a6:
                    65:17:ae:12:da:f0:55:9b:fe:85:6e:ea:f2:c6:bd:
                    56:a2:b6:2b:81:a9:17:57:19:85:f7:ea:07:e7:a7:
                    14:e3
                Exponent: 65537 (0x10001)
        X509v3 extensions:
            X509v3 Basic Constraints: 
                CA:FALSE
            Netscape Comment: 
                OpenSSL Generated Certificate
            X509v3 Subject Key Identifier: 
                43:ED:29:C1:2B:AE:04:24:9F:04:3D:43:2C:3D:A3:29:FB:7E:0E:DF
            X509v3 Authority Key Identifier: 
                keyid:8A:53:71:90:F5:75:AF:40:5B:7D:EF:22:36:38:05:CE:31:B8:17:E3

    Signature Algorithm: sha256WithRSAEncryption
         b2:71:5a:80:72:06:a1:1f:c5:34:c0:75:aa:d0:85:73:57:be:
         88:1e:ea:66:ca:29:c6:53:cb:6c:31:d5:d7:b9:50:ce:25:0d:
         fa:d4:23:93:a7:fa:f2:75:d1:09:c2:d8:1b:d5:4b:3c:50:c6:
         93:8a:1f:fe:a7:0a:dd:2f:4a:ac:0b:f6:6b:a3:9e:02:07:52:
         49:b2:b9:03:8c:97:80:1c:c6:19:01:50:d8:6d:fd:2a:fc:f7:
         62:a1:92:21:49:ec:54:e0:55:85:ed:d1:2d:e6:b3:02:f0:b9:
         63:02:df:e0:8d:22:0d:d4:66:ae:1a:f0:3c:c1:03:43:23:1d:
         af:33:df:09:d3:33:b8:dc:0d:12:81:33:07:42:91:a3:34:e3:
         ba:03:ad:52:4e:37:41:9b:03:ab:2d:fa:3c:b6:e2:85:c6:cb:
         4b:26:24:72:ea:dc:a3:d6:4d:51:5b:d3:f2:4c:6c:86:27:37:
         81:ac:ea:8d:0e:08:8f:0b:dc:3f:e2:65:f9:b1:81:50:ab:ed:
         2d:19:25:a9:fe:57:e2:88:32:a3:06:15:80:73:9f:7b:6f:95:
         db:e0:bd:bb:83:c0:97:c0:36:0e:cd:8a:84:00:ec:ad:89:0a:
         ba:b7:97:c0:81:e6:8c:2f:a3:58:98:aa:fc:81:29:77:ca:1a:
         aa:cb:da:5b
-----BEGIN CERTIFICATE-----
MIIDyTCCArGgAwIBAgIBBDANBgkqhkiG9w0BAQsFADBuMQswCQYDVQQGEwJVSzER
MA8GA1UECAwIQ29ybndhbGwxDzANBgNVBAcMBkJvZG1pbjEWMBQGA1UECgwNTWlj
cm90ZXN0IEx0ZDESMBAGA1UECwwJU1BJREVSOkNBMQ8wDQYDVQQDDAZTUElERVIw
HhcNMTcxMDAzMTA0NTA3WhcNMTgxMDA0MTA0NTA3WjBlMQswCQYDVQQGEwJVSzER
MA8GA1UECAwIQ29ybndhbGwxFjAUBgNVBAoMDU1pY3JvdGVzdCBMdGQxFjAUBgNV
BAsMDVNQSURFUjpDTElFTlQxEzARBgNVBAMMCk5pY2hlOmlHUFIwggEiMA0GCSqG
SIb3DQEBAQUAA4IBDwAwggEKAoIBAQCyHRMzFLOhEAK9A4N4hW41lOJ4/eLwqlO5
nq5onQkkIK0A1iMUjq0OWmb+ET+dhDSS1FP45thf1TtZ7okgSWs6GTCtx5dpXPGT
BERAmodk8E1X7Mh+5s7b7MVtaEsy5KmnUEilFDmjqSm2NppO3d4EYtmLGlDxbpTz
X6PpqrBR83fiX9Xnd2rPEq26MKs5d/kCcFTo8hKAI9x8nikrPP9G0hWCQjTkp9Bm
JZNjWzgja5+C2edv4U79aBazPhzPO46wnEGIT0UOlENu4Mh/mhjDXWdRZVwjcXhE
NFreRzFkpmUXrhLa8FWb/oVu6vLGvVaitiuBqRdXGYX36gfnpxTjAgMBAAGjezB5
MAkGA1UdEwQCMAAwLAYJYIZIAYb4QgENBB8WHU9wZW5TU0wgR2VuZXJhdGVkIENl
cnRpZmljYXRlMB0GA1UdDgQWBBRD7SnBK64EJJ8EPUMsPaMp+34O3zAfBgNVHSME
GDAWgBSKU3GQ9XWvQFt97yI2OAXOMbgX4zANBgkqhkiG9w0BAQsFAAOCAQEAsnFa
gHIGoR/FNMB1qtCFc1e+iB7qZsopxlPLbDHV17lQziUN+tQjk6f68nXRCcLYG9VL
PFDGk4of/qcK3S9KrAv2a6OeAgdSSbK5A4yXgBzGGQFQ2G39Kvz3YqGSIUnsVOBV
he3RLeazAvC5YwLf4I0iDdRmrhrwPMEDQyMdrzPfCdMzuNwNEoEzB0KRozTjugOt
Uk43QZsDqy36PLbihcbLSyYkcurco9ZNUVvT8kxshic3gazqjQ4IjwvcP+Jl+bGB
UKvtLRklqf5X4ogyowYVgHOfe2+V2+C9u4PAl8A2Ds2KhADsrYkKureXwIHmjC+j
WJiq/IEpd8oaqsvaWw==
-----END CERTIFICATE-----
-----BEGIN CERTIFICATE-----
MIIDsjCCApqgAwIBAgIJAIBG0W2mddQDMA0GCSqGSIb3DQEBCwUAMG4xCzAJBgNV
BAYTAlVLMREwDwYDVQQIDAhDb3Jud2FsbDEPMA0GA1UEBwwGQm9kbWluMRYwFAYD
VQQKDA1NaWNyb3Rlc3QgTHRkMRIwEAYDVQQLDAlTUElERVI6Q0ExDzANBgNVBAMM
BlNQSURFUjAeFw0xNzA4MDQxNTMyMzNaFw0zOTA2MzAxNTMyMzNaMG4xCzAJBgNV
BAYTAlVLMREwDwYDVQQIDAhDb3Jud2FsbDEPMA0GA1UEBwwGQm9kbWluMRYwFAYD
VQQKDA1NaWNyb3Rlc3QgTHRkMRIwEAYDVQQLDAlTUElERVI6Q0ExDzANBgNVBAMM
BlNQSURFUjCCASIwDQYJKoZIhvcNAQEBBQADggEPADCCAQoCggEBAMGmI5/R+VS2
tPqUXYRYPr2idlljgE8MWyAymYzUy7QMB37m45dBMSz3E43q/PVnO2l6Fy4VL8g7
dEYrk8gwftb0bbt69QzW02ES6diaM/1Jub3oZxS027Zs0+Dcv/OHz4ousZMpkSLj
qyfcO9vxxVZ/1FZJfIoqcFtAME4Ni4wqs2FCY4drdJZHBK5cj+b7bbqRf2Jt7iLL
vD76VGa3I6cMt6A0FgZxDvCfowUzxL8bEIIHMyrM000y6XLU9nriDx0lTAiShpvF
RxTxd+F9CtpeM9B2EChilVq/SjK0sPs8hj5UohJjaGNE1+j2WHHomJ/sW9616w3Z
0Ph9/3G0AeMCAwEAAaNTMFEwHQYDVR0OBBYEFIpTcZD1da9AW33vIjY4Bc4xuBfj
MB8GA1UdIwQYMBaAFIpTcZD1da9AW33vIjY4Bc4xuBfjMA8GA1UdEwEB/wQFMAMB
Af8wDQYJKoZIhvcNAQELBQADggEBAK7GuFOQeLZ2YHXGcgk9IPePZEG9H3ARwUOX
bbAFXueXCGgDAtT8psKItjmye/LVkdlKp2F/WMPtQ2GbYb2abadRp4Tpln9vV4l5
RKgeCvKfl1mr7xWyMpK79QHehTHYq6SVuk7CS95+XTmae8lSQNjORnH7LEIIg3CL
8OzVpDkc63+gOxFmFdLP1+u9TzeCIqM3cEw51vCpRGlMzxODT8hIuVEBCT8vV6mC
VlBL6QbV/rpLI/GBrhkDGKmRd30IFkfd433ISN+IGZ8+fSARmhzWDksCCU5CNvSR
rEVlaCFKJrgKKiLPwHGVeONcAcbd5OLvGrb+azve13FhNcdXGCI=
-----END CERTIFICATE-----
-----BEGIN RSA PRIVATE KEY-----
MIIEpAIBAAKCAQEAsh0TMxSzoRACvQODeIVuNZTieP3i8KpTuZ6uaJ0JJCCtANYj
FI6tDlpm/hE/nYQ0ktRT+ObYX9U7We6JIElrOhkwrceXaVzxkwREQJqHZPBNV+zI
fubO2+zFbWhLMuSpp1BIpRQ5o6kptjaaTt3eBGLZixpQ8W6U81+j6aqwUfN34l/V
53dqzxKtujCrOXf5AnBU6PISgCPcfJ4pKzz/RtIVgkI05KfQZiWTY1s4I2ufgtnn
b+FO/WgWsz4czzuOsJxBiE9FDpRDbuDIf5oYw11nUWVcI3F4RDRa3kcxZKZlF64S
2vBVm/6Fburyxr1WorYrgakXVxmF9+oH56cU4wIDAQABAoIBACrOsBmbxRxVo8LX
wFZMA1PfZ5rashtTZHH9QD+mVlcXf1zvGllLfS4w7gXsEVUDPDt5yoDMwn4t2mjf
2pcm7h11hmyNxscs7mZ+JQU93oKU+pHCN+HACUF0I3MLGN+vc1LiCcObG8tI0dyY
PPftfPmi5FP5TDDqeeQQPW3gdyYKrjyC0LxaGIkoDp4+mL3WBMPwtzzC1N2BrUd9
E1PrLK57TJHFj/2GODJu3iVTA94MkQHEOYEnHuVAfGX1UzcHiAgB1Us4VidEzaNx
ljQtkE1xUD1eDjlK3XQhrlhDUa4LB2zBUuE0EGzatxYn8kvSovvUr1r/wNttg/ry
+2uL4iECgYEA21xywyHPdFzOShsbW5+TgOqaLZaUgVbmmgh6yRJKU+1DTHFRixuF
viS7mnBIKiAF6f9Vmi3Y0D5hblftG2n+/L50OlDZdsSPBhjVWb0taJBDLdEf9yKs
3KeaqlfQgcOO8X6RJkC7hb3EUZsUOmU7T5szkig0PM9C5F3kgcWa5RMCgYEAz9zx
hcqZiCqEXUcilv5GRP6aqjs8h+hdcaIcqniScTPRmbQ3Bqt304qEw57ZXrVDK671
BxqojaC5beuQ0/JMyh+iYBpjwk0HKLDcxrU7IBGHtaVrpPPgwxcUjdN94xSGUkyh
eQ06r3Hd4wD01F9ISK8AhhQeoldduBJoXknYmvECgYARHgOuimLf16YZTkgyPB+M
fcIOMKPh+9/+wQ6jxhOavPb1bhpI2przHXauNHjNILaVbeFGKLG0fkmoDKBp9Tl6
i3oSWuC9TdVDSojLeeGjOS6k0p7F8CTBCyscg8G3foUW/yNgcsivRQGexJUtgVzB
d4DstMpuvFWh8Fm2bq8JlQKBgQCqqYzjfGRyF/Z1X2JW9o5bN29lNR2NuIqAMcm3
bSdPKmx89in3n/DSDnjS5Ck0ST7NLuie3JRnM/8K8M4INng1u6NlpEUj0np+PjgG
LeZNfhceXKL03Ac+JkUJ7Qr+1msyRxiMewAj7Clxp+dcNp7yjjyv2PUN9Q1NhE+M
mrTtAQKBgQCAkGSzIF62WqDHxiqNt+7hmRlmoQdL6Zz92T3qDluDhOpyXSAXQfdC
z8Ts9URpbYL+m2FLgeN+yoVPvX4+hRLR69jMWd+5oI3f2gZuX16anoQ8SPSFV/+v
nZnkbHfvYwPmI8dvg8BIvULPBjU587gLu7ZEQon7Vinc6kEV+VTdhQ==
-----END RSA PRIVATE KEY-----
