Certificate:
    Data:
        Version: 3 (0x2)
        Serial Number: 6 (0x6)
    Signature Algorithm: sha256WithRSAEncryption
        Issuer: C=UK, ST=Cornwall, L=Bodmin, O=Microtest Ltd, OU=SPIDER:CA, CN=SPIDER
        Validity
            Not Before: Jan 10 12:41:07 2018 GMT
            Not After : Jan  9 12:41:07 2021 GMT
        Subject: C=UK, ST=Cornwall, O=Microtest Ltd, OU=SPIDER:CLIENT, CN=PCTi:DocMan10
        Subject Public Key Info:
            Public Key Algorithm: rsaEncryption
                Public-Key: (2048 bit)
                Modulus:
                    00:b9:60:46:c6:87:d1:05:f9:88:b7:96:a1:2a:2f:
                    10:39:fa:11:fd:9d:d1:17:e1:b6:23:cb:44:8d:0d:
                    58:df:0a:75:30:dd:2c:77:e4:5d:91:18:29:40:4c:
                    c6:a2:6a:0e:85:3a:f9:a6:33:d8:2f:1f:dc:0f:ae:
                    dd:00:29:5a:64:8c:2a:c9:4a:fc:39:13:2c:86:f8:
                    43:5d:b7:26:ae:b1:6d:40:80:77:dd:8b:8b:36:b2:
                    09:dd:48:46:bf:5e:03:77:27:21:68:be:b2:ca:1a:
                    64:e1:c8:1c:65:c6:d5:82:76:1f:a7:ad:27:70:2c:
                    15:33:b4:e9:1e:a7:32:72:c4:0c:e9:13:ee:4b:4f:
                    87:2a:66:09:ee:fc:14:8f:bb:2e:ca:d5:51:a8:de:
                    dc:d7:6d:9b:84:e1:32:09:c3:dd:b1:20:32:6d:82:
                    b3:3c:2b:57:d0:b5:9f:c8:44:9a:c8:b6:af:34:b5:
                    1a:16:88:4a:70:3b:14:cb:d6:94:6c:7d:61:80:f3:
                    a7:2e:94:25:db:38:d6:e4:38:29:62:eb:c8:17:b5:
                    3c:6d:59:29:c8:2f:ba:21:e9:0a:b1:19:eb:59:be:
                    ab:0a:b8:38:18:48:9d:33:5e:26:3e:fb:82:73:b8:
                    3a:d5:95:30:9c:6c:a3:99:b8:08:24:e3:f3:8a:ff:
                    bd:7b
                Exponent: 65537 (0x10001)
        X509v3 extensions:
            X509v3 Basic Constraints: 
                CA:FALSE
            Netscape Comment: 
                OpenSSL Generated Certificate
            X509v3 Subject Key Identifier: 
                C6:FF:AC:0D:7C:7B:A9:FF:73:16:24:0C:2F:7F:E1:9D:35:21:C6:78
            X509v3 Authority Key Identifier: 
                keyid:8A:53:71:90:F5:75:AF:40:5B:7D:EF:22:36:38:05:CE:31:B8:17:E3

    Signature Algorithm: sha256WithRSAEncryption
         7b:26:f5:21:68:51:89:28:c6:61:5e:6f:1d:e0:d3:e4:8d:7e:
         ff:63:8d:06:6c:59:b8:eb:38:d3:6e:aa:58:1c:80:6b:c1:c3:
         32:b3:8e:7d:7e:94:1f:2a:4d:59:e3:0e:eb:70:1a:4e:4f:68:
         4b:67:c0:10:1f:9b:b2:b7:af:04:53:94:c8:90:2f:2e:f6:87:
         3d:9c:ed:12:c7:7c:00:16:ad:6e:ce:e2:01:86:58:64:57:6f:
         8d:f7:ce:bd:87:df:38:91:35:94:06:39:8e:89:b8:79:b0:45:
         cf:1e:13:fb:14:8d:69:95:cd:f1:1f:5e:44:59:79:f2:ec:75:
         fe:cc:8f:b5:0a:0d:13:6c:29:ab:21:ef:73:ed:81:96:e6:db:
         5b:aa:98:25:8a:47:02:7b:5e:be:6c:8a:a8:7d:39:ca:bf:3f:
         09:4d:c8:4a:9e:10:b9:34:16:db:f2:f4:4b:c6:a7:f9:e7:94:
         cd:9d:22:30:92:93:17:d2:51:d7:91:8a:15:68:57:ef:1e:64:
         b4:6f:3b:13:dd:90:2a:fc:c7:af:e9:10:10:83:9e:da:06:03:
         12:94:4f:1d:af:e9:11:dc:40:63:86:df:5e:07:a6:52:f6:5d:
         c8:1d:78:50:5b:9c:c4:fa:e7:23:82:5c:40:17:9c:c1:aa:e4:
         82:06:a9:1a
-----BEGIN CERTIFICATE-----
MIIDzDCCArSgAwIBAgIBBjANBgkqhkiG9w0BAQsFADBuMQswCQYDVQQGEwJVSzER
MA8GA1UECAwIQ29ybndhbGwxDzANBgNVBAcMBkJvZG1pbjEWMBQGA1UECgwNTWlj
cm90ZXN0IEx0ZDESMBAGA1UECwwJU1BJREVSOkNBMQ8wDQYDVQQDDAZTUElERVIw
HhcNMTgwMTEwMTI0MTA3WhcNMjEwMTA5MTI0MTA3WjBoMQswCQYDVQQGEwJVSzER
MA8GA1UECAwIQ29ybndhbGwxFjAUBgNVBAoMDU1pY3JvdGVzdCBMdGQxFjAUBgNV
BAsMDVNQSURFUjpDTElFTlQxFjAUBgNVBAMMDVBDVGk6RG9jTWFuMTAwggEiMA0G
CSqGSIb3DQEBAQUAA4IBDwAwggEKAoIBAQC5YEbGh9EF+Yi3lqEqLxA5+hH9ndEX
4bYjy0SNDVjfCnUw3Sx35F2RGClATMaiag6FOvmmM9gvH9wPrt0AKVpkjCrJSvw5
EyyG+ENdtyausW1AgHfdi4s2sgndSEa/XgN3JyFovrLKGmThyBxlxtWCdh+nrSdw
LBUztOkepzJyxAzpE+5LT4cqZgnu/BSPuy7K1VGo3tzXbZuE4TIJw92xIDJtgrM8
K1fQtZ/IRJrItq80tRoWiEpwOxTL1pRsfWGA86culCXbONbkOCli68gXtTxtWSnI
L7oh6QqxGetZvqsKuDgYSJ0zXiY++4JzuDrVlTCcbKOZuAgk4/OK/717AgMBAAGj
ezB5MAkGA1UdEwQCMAAwLAYJYIZIAYb4QgENBB8WHU9wZW5TU0wgR2VuZXJhdGVk
IENlcnRpZmljYXRlMB0GA1UdDgQWBBTG/6wNfHup/3MWJAwvf+GdNSHGeDAfBgNV
HSMEGDAWgBSKU3GQ9XWvQFt97yI2OAXOMbgX4zANBgkqhkiG9w0BAQsFAAOCAQEA
eyb1IWhRiSjGYV5vHeDT5I1+/2ONBmxZuOs4026qWByAa8HDMrOOfX6UHypNWeMO
63AaTk9oS2fAEB+bsrevBFOUyJAvLvaHPZztEsd8ABatbs7iAYZYZFdvjffOvYff
OJE1lAY5jom4ebBFzx4T+xSNaZXN8R9eRFl58ux1/syPtQoNE2wpqyHvc+2Blubb
W6qYJYpHAntevmyKqH05yr8/CU3ISp4QuTQW2/L0S8an+eeUzZ0iMJKTF9JR15GK
FWhX7x5ktG87E92QKvzHr+kQEIOe2gYDEpRPHa/pEdxAY4bfXgemUvZdyB14UFuc
xPrnI4JcQBecwarkggapGg==
-----END CERTIFICATE-----
