Certificate:
    Data:
        Version: 3 (0x2)
        Serial Number: 1 (0x1)
    Signature Algorithm: sha256WithRSAEncryption
        Issuer: C=UK, ST=Cornwall, L=Bodmin, O=Microtest Ltd, OU=SPIDER:CA, CN=SPIDER
        Validity
            Not Before: Aug  4 15:32:33 2017 GMT
            Not After : Jun 30 15:32:33 2039 GMT
        Subject: C=UK, ST=Cornwall, O=Microtest Ltd, OU=SPIDER:SERVER, CN=SPIDER
        Subject Public Key Info:
            Public Key Algorithm: rsaEncryption
                Public-Key: (2048 bit)
                Modulus:
                    00:c1:a6:23:9f:d1:f9:54:b6:b4:fa:94:5d:84:58:
                    3e:bd:a2:76:59:63:80:4f:0c:5b:20:32:99:8c:d4:
                    cb:b4:0c:07:7e:e6:e3:97:41:31:2c:f7:13:8d:ea:
                    fc:f5:67:3b:69:7a:17:2e:15:2f:c8:3b:74:46:2b:
                    93:c8:30:7e:d6:f4:6d:bb:7a:f5:0c:d6:d3:61:12:
                    e9:d8:9a:33:fd:49:b9:bd:e8:67:14:b4:db:b6:6c:
                    d3:e0:dc:bf:f3:87:cf:8a:2e:b1:93:29:91:22:e3:
                    ab:27:dc:3b:db:f1:c5:56:7f:d4:56:49:7c:8a:2a:
                    70:5b:40:30:4e:0d:8b:8c:2a:b3:61:42:63:87:6b:
                    74:96:47:04:ae:5c:8f:e6:fb:6d:ba:91:7f:62:6d:
                    ee:22:cb:bc:3e:fa:54:66:b7:23:a7:0c:b7:a0:34:
                    16:06:71:0e:f0:9f:a3:05:33:c4:bf:1b:10:82:07:
                    33:2a:cc:d3:4d:32:e9:72:d4:f6:7a:e2:0f:1d:25:
                    4c:08:92:86:9b:c5:47:14:f1:77:e1:7d:0a:da:5e:
                    33:d0:76:10:28:62:95:5a:bf:4a:32:b4:b0:fb:3c:
                    86:3e:54:a2:12:63:68:63:44:d7:e8:f6:58:71:e8:
                    98:9f:ec:5b:de:b5:eb:0d:d9:d0:f8:7d:ff:71:b4:
                    01:e3
                Exponent: 65537 (0x10001)
        X509v3 extensions:
            X509v3 Basic Constraints: 
                CA:FALSE
            Netscape Comment: 
                OpenSSL Generated Certificate
            X509v3 Subject Key Identifier: 
                8A:53:71:90:F5:75:AF:40:5B:7D:EF:22:36:38:05:CE:31:B8:17:E3
            X509v3 Authority Key Identifier: 
                keyid:8A:53:71:90:F5:75:AF:40:5B:7D:EF:22:36:38:05:CE:31:B8:17:E3

    Signature Algorithm: sha256WithRSAEncryption
         b4:71:19:b2:c3:a6:2d:a5:6c:b2:fc:5b:77:ff:02:fe:67:ae:
         0e:e8:65:df:04:8a:ea:4e:02:91:f2:77:71:dc:1c:bb:73:ab:
         17:78:5c:e3:af:63:09:60:38:ac:13:8f:dd:96:33:05:f1:9e:
         1d:e5:d7:8f:4b:3f:a4:1a:5f:8c:67:ae:e1:6d:74:77:a8:5d:
         45:18:cc:24:6d:81:f7:b3:b9:62:fe:94:4a:c2:48:6e:88:d8:
         ff:91:0b:3a:34:00:2f:7c:ee:36:ae:24:84:e1:77:1a:74:74:
         7f:00:39:01:b3:8f:1f:84:83:04:97:e2:b4:88:9b:b5:65:f8:
         7d:28:05:23:0a:83:fe:28:c6:40:42:45:d8:11:05:16:e4:9f:
         c1:95:9f:3f:cb:70:84:67:29:22:64:79:1a:a6:e9:0f:ba:11:
         43:c1:5d:b0:18:52:29:d0:1a:25:69:ea:74:3d:41:1e:a4:be:
         b4:d4:d0:1b:7f:fb:9d:22:cb:21:bd:0e:a1:e6:3f:3c:f6:79:
         dd:24:60:59:60:99:74:9a:f6:d5:55:c1:6a:b2:39:fb:35:ac:
         9b:d9:b8:1b:62:5e:ee:b4:72:32:b3:fc:1f:46:7b:bd:a9:e6:
         9e:68:0f:ba:8c:29:74:4c:f8:dd:14:46:05:ad:9d:12:21:e3:
         e0:70:23:e0
-----BEGIN CERTIFICATE-----
MIIDxTCCAq2gAwIBAgIBATANBgkqhkiG9w0BAQsFADBuMQswCQYDVQQGEwJVSzER
MA8GA1UECAwIQ29ybndhbGwxDzANBgNVBAcMBkJvZG1pbjEWMBQGA1UECgwNTWlj
cm90ZXN0IEx0ZDESMBAGA1UECwwJU1BJREVSOkNBMQ8wDQYDVQQDDAZTUElERVIw
HhcNMTcwODA0MTUzMjMzWhcNMzkwNjMwMTUzMjMzWjBhMQswCQYDVQQGEwJVSzER
MA8GA1UECAwIQ29ybndhbGwxFjAUBgNVBAoMDU1pY3JvdGVzdCBMdGQxFjAUBgNV
BAsMDVNQSURFUjpTRVJWRVIxDzANBgNVBAMMBlNQSURFUjCCASIwDQYJKoZIhvcN
AQEBBQADggEPADCCAQoCggEBAMGmI5/R+VS2tPqUXYRYPr2idlljgE8MWyAymYzU
y7QMB37m45dBMSz3E43q/PVnO2l6Fy4VL8g7dEYrk8gwftb0bbt69QzW02ES6dia
M/1Jub3oZxS027Zs0+Dcv/OHz4ousZMpkSLjqyfcO9vxxVZ/1FZJfIoqcFtAME4N
i4wqs2FCY4drdJZHBK5cj+b7bbqRf2Jt7iLLvD76VGa3I6cMt6A0FgZxDvCfowUz
xL8bEIIHMyrM000y6XLU9nriDx0lTAiShpvFRxTxd+F9CtpeM9B2EChilVq/SjK0
sPs8hj5UohJjaGNE1+j2WHHomJ/sW9616w3Z0Ph9/3G0AeMCAwEAAaN7MHkwCQYD
VR0TBAIwADAsBglghkgBhvhCAQ0EHxYdT3BlblNTTCBHZW5lcmF0ZWQgQ2VydGlm
aWNhdGUwHQYDVR0OBBYEFIpTcZD1da9AW33vIjY4Bc4xuBfjMB8GA1UdIwQYMBaA
FIpTcZD1da9AW33vIjY4Bc4xuBfjMA0GCSqGSIb3DQEBCwUAA4IBAQC0cRmyw6Yt
pWyy/Ft3/wL+Z64O6GXfBIrqTgKR8ndx3By7c6sXeFzjr2MJYDisE4/dljMF8Z4d
5dePSz+kGl+MZ67hbXR3qF1FGMwkbYH3s7li/pRKwkhuiNj/kQs6NAAvfO42riSE
4XcadHR/ADkBs48fhIMEl+K0iJu1Zfh9KAUjCoP+KMZAQkXYEQUW5J/BlZ8/y3CE
ZykiZHkapukPuhFDwV2wGFIp0Bolaep0PUEepL601NAbf/udIsshvQ6h5j889nnd
JGBZYJl0mvbVVcFqsjn7Nayb2bgbYl7utHIys/wfRnu9qeaeaA+6jCl0TPjdFEYF
rZ0SIePgcCPg
-----END CERTIFICATE-----
